(dp0
S'num_cpu_cars'
p1
I10
sS'terrain_params'
p2
(lp3
(I0
I-2000
I20000
I38000
S'grass'
p4
tp5
a(I0
I0
I20000
I200
S'road'
p6
tp7
a(I0
I2000
I20000
I3800
g4
tp8
asS'screen_size'
p9
(I512
I512
tp10
sS'screenshot_rate'
p11
I10
sS'steer_action'
p12
F15.0
sS'main_car_params'
p13
(I0
I0
F0.0
F20.0
tp14
sS'cpu_cars_bounding_box'
p15
cnumpy.core.multiarray
_reconstruct
p16
(cnumpy
ndarray
p17
(I0
tp18
S'b'
p19
tp20
Rp21
(I1
(I2
I2
tp22
cnumpy
dtype
p23
(S'f8'
p24
I0
I1
tp25
Rp26
(I3
S'<'
p27
NNNI-1
I-1
I0
tp28
bI00
S'\x00\x00\x00\x00\x00\x00Y@\x00\x00\x00\x00\x00@\x8f@\x00\x00\x00\x00\x00\x80V\xc0\x00\x00\x00\x00\x00\x80V@'
p29
tp30
bsS'acc_action'
p31
F5.0
sS'time_horizon'
p32
I100
sS'main_car_starting_angles'
p33
g16
(g17
(I0
tp34
g19
tp35
Rp36
(I1
(I5
tp37
g26
I00
S'\x00\x00\x00\x00\x00\x00>\xc0\x00\x00\x00\x00\x00\x00.\xc0\x00\x00\x00\x00\x00\x00\x00\x00\x00\x00\x00\x00\x00\x00.@\x00\x00\x00\x00\x00\x00>@'
p38
tp39
bsS'screenshot_dir'
p40
Ns.